target datalayout = "e-m:e-p270:32:32-p271:32:32-p272:64:64-i64:64-i128:128-f80:128-n8:16:32:64-S128"
target triple = "x86_64-pc-linux-gnu"

@.str.99 = private unnamed_addr constant [5 x i8] c"none\00", align 1
@.str.100 = private unnamed_addr constant [5 x i8] c"copy\00", align 1
@.str.101 = private unnamed_addr constant [8 x i8] c"copyall\00", align 1

; Function Attrs: nounwind uwtable
define dso_local i32 @set_ext_copy(ptr noundef %0, ptr noundef %1) #0 {
  %3 = alloca i32, align 4
  %4 = alloca ptr, align 8
  %5 = alloca ptr, align 8
  store ptr %0, ptr %4, align 8, !tbaa !99
  store ptr %1, ptr %5, align 8, !tbaa !9
  %6 = load ptr, ptr %5, align 8, !tbaa !9
  %7 = call i32 @OPENSSL_strcasecmp(ptr noundef %6, ptr noundef @.str.99)
  %8 = icmp eq i32 %7, 0
  br i1 %8, label %9, label %11

9:                                                ; preds = %2
  %10 = load ptr, ptr %4, align 8, !tbaa !99
  store i32 0, ptr %10, align 4, !tbaa !25
  br label %26

11:                                               ; preds = %2
  %12 = load ptr, ptr %5, align 8, !tbaa !9
  %13 = call i32 @OPENSSL_strcasecmp(ptr noundef %12, ptr noundef @.str.100)
  %14 = icmp eq i32 %13, 0
  br i1 %14, label %15, label %17

15:                                               ; preds = %11
  %16 = load ptr, ptr %4, align 8, !tbaa !99
  store i32 1, ptr %16, align 4, !tbaa !25
  br label %25

17:                                               ; preds = %11
  %18 = load ptr, ptr %5, align 8, !tbaa !9
  %19 = call i32 @OPENSSL_strcasecmp(ptr noundef %18, ptr noundef @.str.101)
  %20 = icmp eq i32 %19, 0
  br i1 %20, label %21, label %23

21:                                               ; preds = %17
  %22 = load ptr, ptr %4, align 8, !tbaa !99
  store i32 2, ptr %22, align 4, !tbaa !25
  br label %24

23:                                               ; preds = %17
  store i32 0, ptr %3, align 4
  br label %27

24:                                               ; preds = %21
  br label %25

25:                                               ; preds = %24, %15
  br label %26

26:                                               ; preds = %25, %9
  store i32 1, ptr %3, align 4
  br label %27

27:                                               ; preds = %26, %23
  %28 = load i32, ptr %3, align 4
  ret i32 %28
}