; Function Attrs: nounwind uwtable
define dso_local range(i32 0, 2) i32 @set_ext_copy(ptr noundef writeonly captures(none) %0, ptr noundef %1) local_unnamed_addr #0 {
  %3 = tail call i32 @OPENSSL_strcasecmp(ptr noundef %1, ptr noundef nonnull @.str.99) #27
  %4 = icmp eq i32 %3, 0
  br i1 %4, label %.sink.split, label %5

5:                                                ; preds = %2
  %6 = tail call i32 @OPENSSL_strcasecmp(ptr noundef %1, ptr noundef nonnull @.str.100) #27
  %7 = icmp eq i32 %6, 0
  br i1 %7, label %.sink.split, label %8

8:                                                ; preds = %5
  %9 = tail call i32 @OPENSSL_strcasecmp(ptr noundef %1, ptr noundef nonnull @.str.101) #27
  %10 = icmp eq i32 %9, 0
  br i1 %10, label %.sink.split, label %11

.sink.split:                                      ; preds = %8, %5, %2
  %.sink = phi i32 [ 0, %2 ], [ 1, %5 ], [ 2, %8 ]
  store i32 %.sink, ptr %0, align 4, !tbaa !30
  br label %11

11:                                               ; preds = %.sink.split, %8
  %.0 = phi i32 [ 0, %8 ], [ 1, %.sink.split ]
  ret i32 %.0
}